; Function Attrs: nounwind uwtable
define internal range(i32 0, 2) i32 @Sync(ptr noundef readonly captures(none) %0) #4 {
  %2 = load ptr, ptr %0, align 8, !tbaa !19
  %3 = icmp eq ptr %2, null
  br i1 %3, label %ChangeState.exit, label %4

4:                                                ; preds = %1
  %5 = tail call i32 @pthread_mutex_lock(ptr noundef nonnull %2) #8
  %6 = getelementptr inbounds nuw i8, ptr %0, i64 8
  %7 = load i32, ptr %6, align 8, !tbaa !18
  %switch = icmp ult i32 %7, 2
  br i1 %switch, label %._crit_edge.i, label %.lr.ph.i

.lr.ph.i:                                         ; preds = %4
  %8 = getelementptr inbounds nuw i8, ptr %2, i64 40
  br label %9

9:                                                ; preds = %9, %.lr.ph.i
  %10 = tail call i32 @pthread_cond_wait(ptr noundef nonnull %8, ptr noundef nonnull %2) #8
  %.pr.i = load i32, ptr %6, align 8, !tbaa !18
  %.not13.i = icmp eq i32 %.pr.i, 1
  br i1 %.not13.i, label %._crit_edge.i, label %9, !llvm.loop !20

._crit_edge.i:                                    ; preds = %9, %4
  %11 = tail call i32 @pthread_mutex_unlock(ptr noundef nonnull %2) #8
  br label %ChangeState.exit

ChangeState.exit:                                 ; preds = %1, %._crit_edge.i
  %12 = getelementptr inbounds nuw i8, ptr %0, i64 40
  %13 = load i32, ptr %12, align 8, !tbaa !15
  %.not = icmp eq i32 %13, 0
  %14 = zext i1 %.not to i32
  ret i32 %14
}